target datalayout = "e-m:e-p270:32:32-p271:32:32-p272:64:64-i64:64-i128:128-f80:128-n8:16:32:64-S128"
target triple = "x86_64-pc-linux-gnu"

; Function Attrs: mustprogress nounwind uwtable
define internal noundef i32 @_ZL18opposite_direction12PJ_DIRECTION(i32 noundef %0) #0 {
  %2 = alloca i32, align 4
  store i32 %0, ptr %2, align 4
  %3 = load i32, ptr %2, align 4
  %4 = sub nsw i32 0, %3
  ret i32 %4
}

; Function Attrs: mustprogress uwtable
define internal noundef zeroext i1 @_ZL19contains_south_poleP8PJconsts12PJ_DIRECTIONddddb(ptr noundef %0, i32 noundef %1, double noundef %2, double noundef %3, double noundef %4, double noundef %5, i1 noundef zeroext %6) #1 {
  %8 = alloca i1, align 1
  %9 = alloca ptr, align 8
  %10 = alloca i32, align 4
  %11 = alloca double, align 8
  %12 = alloca double, align 8
  %13 = alloca double, align 8
  %14 = alloca double, align 8
  %15 = alloca i8, align 1
  %16 = alloca double, align 8
  %17 = alloca double, align 8
  store ptr %0, ptr %9, align 8
  store i32 %1, ptr %10, align 4
  store double %2, ptr %11, align 8
  store double %3, ptr %12, align 8
  store double %4, ptr %13, align 8
  store double %5, ptr %14, align 8
  %18 = zext i1 %6 to i8
  store i8 %18, ptr %15, align 1
  store double -9.000000e+01, ptr %16, align 8
  store double 0.000000e+00, ptr %17, align 8
  %19 = load i8, ptr %15, align 1
  %20 = trunc i8 %19 to i1
  br i1 %20, label %22, label %21

21:                                               ; preds = %7
  store double 0.000000e+00, ptr %16, align 8
  store double -9.000000e+01, ptr %17, align 8
  br label %22

22:                                               ; preds = %21, %7
  %23 = load ptr, ptr %9, align 8
  %24 = load i32, ptr %10, align 4
  %25 = call noundef i32 @_ZL18opposite_direction12PJ_DIRECTION(i32 noundef %24)
  %26 = call i64 @proj_trans_generic(ptr noundef %23, i32 noundef %25, ptr noundef %17, i64 noundef 8, i64 noundef 1, ptr noundef %16, i64 noundef 8, i64 noundef 1, ptr noundef null, i64 noundef 8, i64 noundef 0, ptr noundef null, i64 noundef 8, i64 noundef 0)
  %27 = load double, ptr %11, align 8
  %28 = load double, ptr %17, align 8
  %29 = fcmp olt double %27, %28
  br i1 %29, label %30, label %43

30:                                               ; preds = %22
  %31 = load double, ptr %17, align 8
  %32 = load double, ptr %13, align 8
  %33 = fcmp olt double %31, %32
  br i1 %33, label %34, label %43

34:                                               ; preds = %30
  %35 = load double, ptr %14, align 8
  %36 = load double, ptr %16, align 8
  %37 = fcmp ogt double %35, %36
  br i1 %37, label %38, label %43

38:                                               ; preds = %34
  %39 = load double, ptr %16, align 8
  %40 = load double, ptr %12, align 8
  %41 = fcmp ogt double %39, %40
  br i1 %41, label %42, label %43

42:                                               ; preds = %38
  store i1 true, ptr %8, align 1
  br label %44

43:                                               ; preds = %38, %34, %30, %22
  store i1 false, ptr %8, align 1
  br label %44

44:                                               ; preds = %43, %42
  %45 = load i1, ptr %8, align 1
  ret i1 %45
}